; Function Attrs: nounwind uwtable
define void @Cec_ManSatStop(ptr noundef captures(none) %0) local_unnamed_addr #5 {
  %2 = getelementptr inbounds nuw i8, ptr %0, i64 24
  %3 = load ptr, ptr %2, align 8, !tbaa !69
  %.not = icmp eq ptr %3, null
  br i1 %.not, label %5, label %4

4:                                                ; preds = %1
  tail call void @sat_solver_delete(ptr noundef nonnull %3) #18
  br label %5

5:                                                ; preds = %4, %1
  %6 = getelementptr inbounds nuw i8, ptr %0, i64 80
  %7 = load ptr, ptr %6, align 8, !tbaa !44
  %8 = getelementptr inbounds nuw i8, ptr %7, i64 8
  %9 = load ptr, ptr %8, align 8, !tbaa !43
  %.not.i = icmp eq ptr %9, null
  br i1 %.not.i, label %Vec_IntFree.exit, label %10

10:                                               ; preds = %5
  tail call void @free(ptr noundef nonnull %9) #18
  br label %Vec_IntFree.exit

Vec_IntFree.exit:                                 ; preds = %5, %10
  tail call void @free(ptr noundef nonnull %7) #18
  %11 = getelementptr inbounds nuw i8, ptr %0, i64 88
  %12 = load ptr, ptr %11, align 8, !tbaa !45
  %13 = getelementptr inbounds nuw i8, ptr %12, i64 8
  %14 = load ptr, ptr %13, align 8, !tbaa !43
  %.not.i15 = icmp eq ptr %14, null
  br i1 %.not.i15, label %Vec_IntFree.exit16, label %15

15:                                               ; preds = %Vec_IntFree.exit
  tail call void @free(ptr noundef nonnull %14) #18
  br label %Vec_IntFree.exit16

Vec_IntFree.exit16:                               ; preds = %Vec_IntFree.exit, %15
  tail call void @free(ptr noundef nonnull %12) #18
  %16 = getelementptr inbounds nuw i8, ptr %0, i64 56
  %17 = load ptr, ptr %16, align 8, !tbaa !39
  %18 = getelementptr inbounds nuw i8, ptr %17, i64 8
  %19 = load ptr, ptr %18, align 8, !tbaa !38
  %.not.i17 = icmp eq ptr %19, null
  br i1 %.not.i17, label %Vec_PtrFree.exit, label %20

20:                                               ; preds = %Vec_IntFree.exit16
  tail call void @free(ptr noundef nonnull %19) #18
  br label %Vec_PtrFree.exit

Vec_PtrFree.exit:                                 ; preds = %Vec_IntFree.exit16, %20
  tail call void @free(ptr noundef nonnull %17) #18
  %21 = getelementptr inbounds nuw i8, ptr %0, i64 72
  %22 = load ptr, ptr %21, align 8, !tbaa !40
  %23 = getelementptr inbounds nuw i8, ptr %22, i64 8
  %24 = load ptr, ptr %23, align 8, !tbaa !38
  %.not.i18 = icmp eq ptr %24, null
  br i1 %.not.i18, label %Vec_PtrFree.exit19, label %25

25:                                               ; preds = %Vec_PtrFree.exit
  tail call void @free(ptr noundef nonnull %24) #18
  br label %Vec_PtrFree.exit19

Vec_PtrFree.exit19:                               ; preds = %Vec_PtrFree.exit, %25
  tail call void @free(ptr noundef nonnull %22) #18
  %26 = getelementptr inbounds nuw i8, ptr %0, i64 48
  %27 = load ptr, ptr %26, align 8, !tbaa !34
  %.not13 = icmp eq ptr %27, null
  br i1 %.not13, label %29, label %28

28:                                               ; preds = %Vec_PtrFree.exit19
  tail call void @free(ptr noundef nonnull %27) #18
  br label %29

29:                                               ; preds = %Vec_PtrFree.exit19, %28
  tail call void @free(ptr noundef nonnull %0) #18
  ret void
}